; Function Attrs: mustprogress uwtable
define void @_ZN6icu_7524CollationElementIteratorC2ERKNS_13UnicodeStringEPKNS_17RuleBasedCollatorER10UErrorCode(ptr noundef nonnull align 8 dereferenceable(104) %this, ptr noundef nonnull align 8 dereferenceable(64) %source, ptr noundef %coll, ptr nocapture noundef nonnull align 4 dereferenceable(4) %status) unnamed_addr #1 align 2 personality ptr @__gxx_personality_v0 {
invoke.cont:
  store ptr getelementptr inbounds ({ [5 x ptr] }, ptr @_ZTVN6icu_7524CollationElementIteratorE, i64 0, i32 0, i64 2), ptr %this, align 8
  %iter_ = getelementptr inbounds i8, ptr %this, i64 8
  store ptr null, ptr %iter_, align 8
  %rbc_ = getelementptr inbounds i8, ptr %this, i64 16
  store ptr %coll, ptr %rbc_, align 8
  %otherHalf_ = getelementptr inbounds i8, ptr %this, i64 24
  store i32 0, ptr %otherHalf_, align 8
  %dir_ = getelementptr inbounds i8, ptr %this, i64 28
  store i8 0, ptr %dir_, align 4
  %offsets_ = getelementptr inbounds i8, ptr %this, i64 32
  store ptr null, ptr %offsets_, align 8
  %string_ = getelementptr inbounds i8, ptr %this, i64 40
  store ptr getelementptr inbounds ({ [13 x ptr] }, ptr @_ZTVN6icu_7513UnicodeStringE, i64 0, i32 0, i64 2), ptr %string_, align 8
  %fUnion2.i = getelementptr inbounds i8, ptr %this, i64 48
  store i16 2, ptr %fUnion2.i, align 8
  invoke void @_ZN6icu_7524CollationElementIterator7setTextERKNS_13UnicodeStringER10UErrorCode(ptr noundef nonnull align 8 dereferenceable(104) %this, ptr noundef nonnull align 8 dereferenceable(64) %source, ptr noundef nonnull align 4 dereferenceable(4) %status)
          to label %invoke.cont3 unwind label %lpad2

invoke.cont3:                                     ; preds = %invoke.cont
  ret void

lpad2:                                            ; preds = %invoke.cont
  %0 = landingpad { ptr, i32 }
          cleanup
  tail call void @_ZN6icu_7513UnicodeStringD1Ev(ptr noundef nonnull align 8 dereferenceable(64) %string_) #8
  tail call void @_ZN6icu_757UObjectD2Ev(ptr noundef nonnull align 8 dereferenceable(8) %this) #8
  resume { ptr, i32 } %0
}